target datalayout = "e-m:e-p270:32:32-p271:32:32-p272:64:64-i64:64-i128:128-f80:128-n8:16:32:64-S128"
target triple = "x86_64-pc-linux-gnu"

%struct.strbuf = type { i64, i64, ptr }

@__const.fn_command_mode_fl.buf_payload = private unnamed_addr constant %struct.strbuf { i64 0, i64 0, ptr @strbuf_slopbuf }, align 8
@.str.16 = private unnamed_addr constant [12 x i8] c"cmd_mode %s\00", align 1

; Function Attrs: nounwind uwtable
define internal void @fn_command_mode_fl(ptr noundef %0, i32 noundef %1, ptr noundef %2) #0 {
  %4 = alloca ptr, align 8
  %5 = alloca i32, align 4
  %6 = alloca ptr, align 8
  %7 = alloca %struct.strbuf, align 8
  store ptr %0, ptr %4, align 8, !tbaa !8
  store i32 %1, ptr %5, align 4, !tbaa !4
  store ptr %2, ptr %6, align 8, !tbaa !8
  call void @llvm.lifetime.start.p0(i64 24, ptr %7) #9
  call void @llvm.memcpy.p0.p0.i64(ptr align 8 %7, ptr align 8 @__const.fn_command_mode_fl.buf_payload, i64 24, i1 false)
  %8 = load ptr, ptr %6, align 8, !tbaa !8
  call void (ptr, ptr, ...) @strbuf_addf(ptr noundef %7, ptr noundef @.str.16, ptr noundef %8)
  %9 = load ptr, ptr %4, align 8, !tbaa !8
  %10 = load i32, ptr %5, align 4, !tbaa !4
  call void @normal_io_write_fl(ptr noundef %9, i32 noundef %10, ptr noundef %7)
  call void @strbuf_release(ptr noundef %7)
  call void @llvm.lifetime.end.p0(i64 24, ptr %7) #9
  ret void
}