; Function Attrs: nounwind uwtable
define internal void @fn_command_mode_fl(ptr noundef %0, i32 noundef %1, ptr noundef %2) #0 {
  %4 = alloca %struct.strbuf, align 8
  call void @llvm.lifetime.start.p0(i64 24, ptr nonnull %4) #7
  call void @llvm.memcpy.p0.p0.i64(ptr noundef nonnull align 8 dereferenceable(24) %4, ptr noundef nonnull align 8 dereferenceable(24) @__const.fn_counter.buf_payload, i64 24, i1 false)
  call void (ptr, ptr, ...) @strbuf_addf(ptr noundef nonnull %4, ptr noundef nonnull @.str.16, ptr noundef %2) #7
  call fastcc void @normal_io_write_fl(ptr noundef %0, i32 noundef %1, ptr noundef %4)
  call void @strbuf_release(ptr noundef nonnull %4) #7
  call void @llvm.lifetime.end.p0(i64 24, ptr nonnull %4) #7
  ret void
}